(dp1
S'500021'
p2
I-1
sS'023590'
p3
I-1
sS'003540'
p4
I0
sS'078930'
p5
I5
sS'034730'
p6
I5
sS'011170'
p7
I5
sS'183190'
p8
I4
sS'530037'
p9
I-1
sS'005930'
p10
I0
sS'000880'
p11
I5
sS'500013'
p12
I5
sS'000660'
p13
I-1
sS'500031'
p14
I-1
sS'034220'
p15
I-1
sS'034300'
p16
I5
sS'096770'
p17
I5
sS'000270'
p18
I-1
sS'086280'
p19
I-1
sS'243880'
p20
I5
sS'204480'
p21
I1
sS'010950'
p22
I3
sS'010620'
p23
I5
sS'012330'
p24
I-1
sS'005880'
p25
I5
sS'004020'
p26
I5
sS'160580'
p27
I2
sS'030210'
p28
I5
sS'225050'
p29
I0
sS'139310'
p30
I4
sS'011210'
p31
I-1
sS'122630'
p32
I5
sS'003550'
p33
I5
sS'003470'
p34
I5
sS'233740'
p35
I5
sS'009830'
p36
I5
sS'182480'
p37
I-1
sS'005380'
p38
I0
sS'015760'
p39
I-1
sS'006220'
p40
I5
sS'500019'
p41
I-1
sS'004800'
p42
I-1
sS'006360'
p43
I3
sS'009540'
p44
I-1
sS'500017'
p45
I-1
sS'225130'
p46
I-1
sS'066570'
p47
I5
sS'204450'
p48
I5
sS'035720'
p49
I-1
sS'028670'
p50
I2
sS'010060'
p51
I5
sS'243890'
p52
I-1
sS'225040'
p53
I-1
sS'230480'
p54
I5
s.